target datalayout = "e-m:e-p270:32:32-p271:32:32-p272:64:64-i64:64-i128:128-f80:128-n8:16:32:64-S128"
target triple = "x86_64-pc-linux-gnu"

; Function Attrs: inlinehint mustprogress nounwind uwtable
define internal noundef i32 @_ZN2cvL6normL1ItiEET0_PKT_S4_i(ptr noundef %0, ptr noundef %1, i32 noundef %2) #3 {
  %4 = alloca ptr, align 8
  %5 = alloca ptr, align 8
  %6 = alloca i32, align 4
  %7 = alloca i32, align 4
  %8 = alloca i32, align 4
  %9 = alloca i32, align 4
  store ptr %0, ptr %4, align 8, !tbaa !13
  store ptr %1, ptr %5, align 8, !tbaa !13
  store i32 %2, ptr %6, align 4, !tbaa !3
  call void @llvm.lifetime.start.p0(i64 4, ptr %7) #15
  store i32 0, ptr %7, align 4, !tbaa !3
  call void @llvm.lifetime.start.p0(i64 4, ptr %8) #15
  store i32 0, ptr %8, align 4, !tbaa !3
  br label %10

10:                                               ; preds = %32, %3
  %11 = load i32, ptr %8, align 4, !tbaa !3
  %12 = load i32, ptr %6, align 4, !tbaa !3
  %13 = icmp slt i32 %11, %12
  br i1 %13, label %14, label %35

14:                                               ; preds = %10
  call void @llvm.lifetime.start.p0(i64 4, ptr %9) #15
  %15 = load ptr, ptr %4, align 8, !tbaa !13
  %16 = load i32, ptr %8, align 4, !tbaa !3
  %17 = sext i32 %16 to i64
  %18 = getelementptr inbounds i16, ptr %15, i64 %17
  %19 = load i16, ptr %18, align 2, !tbaa !101
  %20 = zext i16 %19 to i32
  %21 = load ptr, ptr %5, align 8, !tbaa !13
  %22 = load i32, ptr %8, align 4, !tbaa !3
  %23 = sext i32 %22 to i64
  %24 = getelementptr inbounds i16, ptr %21, i64 %23
  %25 = load i16, ptr %24, align 2, !tbaa !101
  %26 = zext i16 %25 to i32
  %27 = sub nsw i32 %20, %26
  store i32 %27, ptr %9, align 4, !tbaa !3
  %28 = load i32, ptr %9, align 4, !tbaa !3
  %29 = call i32 @llvm.abs.i32(i32 %28, i1 true)
  %30 = load i32, ptr %7, align 4, !tbaa !3
  %31 = add nsw i32 %30, %29
  store i32 %31, ptr %7, align 4, !tbaa !3
  call void @llvm.lifetime.end.p0(i64 4, ptr %9) #15
  br label %32

32:                                               ; preds = %14
  %33 = load i32, ptr %8, align 4, !tbaa !3
  %34 = add nsw i32 %33, 1
  store i32 %34, ptr %8, align 4, !tbaa !3
  br label %10, !llvm.loop !238

35:                                               ; preds = %10
  %36 = load i32, ptr %7, align 4, !tbaa !3
  call void @llvm.lifetime.end.p0(i64 4, ptr %8) #15
  call void @llvm.lifetime.end.p0(i64 4, ptr %7) #15
  ret i32 %36
}

; Function Attrs: mustprogress uwtable
define linkonce_odr hidden noundef i32 @_ZN2cv11normDiffL1_ItiEEiPKT_S3_PKhPT0_ii(ptr noundef %0, ptr noundef %1, ptr noundef %2, ptr noundef %3, i32 noundef %4, i32 noundef %5) #0 comdat {
  %7 = alloca ptr, align 8
  %8 = alloca ptr, align 8
  %9 = alloca ptr, align 8
  %10 = alloca ptr, align 8
  %11 = alloca i32, align 4
  %12 = alloca i32, align 4
  %13 = alloca i32, align 4
  %14 = alloca i32, align 4
  %15 = alloca i32, align 4
  %16 = alloca i32, align 4
  store ptr %0, ptr %7, align 8, !tbaa !13
  store ptr %1, ptr %8, align 8, !tbaa !13
  store ptr %2, ptr %9, align 8, !tbaa !9
  store ptr %3, ptr %10, align 8, !tbaa !11
  store i32 %4, ptr %11, align 4, !tbaa !3
  store i32 %5, ptr %12, align 4, !tbaa !3
  call void @llvm.lifetime.start.p0(i64 4, ptr %13) #15
  %17 = load ptr, ptr %10, align 8, !tbaa !11
  %18 = load i32, ptr %17, align 4, !tbaa !3
  store i32 %18, ptr %13, align 4, !tbaa !3
  %19 = load ptr, ptr %9, align 8, !tbaa !9
  %20 = icmp ne ptr %19, null
  br i1 %20, label %30, label %21

21:                                               ; preds = %6
  %22 = load ptr, ptr %7, align 8, !tbaa !13
  %23 = load ptr, ptr %8, align 8, !tbaa !13
  %24 = load i32, ptr %11, align 4, !tbaa !3
  %25 = load i32, ptr %12, align 4, !tbaa !3
  %26 = mul nsw i32 %24, %25
  %27 = call noundef i32 @_ZN2cvL6normL1ItiEET0_PKT_S4_i(ptr noundef %22, ptr noundef %23, i32 noundef %26)
  %28 = load i32, ptr %13, align 4, !tbaa !3
  %29 = add nsw i32 %28, %27
  store i32 %29, ptr %13, align 4, !tbaa !3
  br label %83

30:                                               ; preds = %6
  call void @llvm.lifetime.start.p0(i64 4, ptr %14) #15
  store i32 0, ptr %14, align 4, !tbaa !3
  br label %31

31:                                               ; preds = %71, %30
  %32 = load i32, ptr %14, align 4, !tbaa !3
  %33 = load i32, ptr %11, align 4, !tbaa !3
  %34 = icmp slt i32 %32, %33
  br i1 %34, label %36, label %35

35:                                               ; preds = %31
  store i32 2, ptr %15, align 4
  call void @llvm.lifetime.end.p0(i64 4, ptr %14) #15
  br label %82

36:                                               ; preds = %31
  %37 = load ptr, ptr %9, align 8, !tbaa !9
  %38 = load i32, ptr %14, align 4, !tbaa !3
  %39 = sext i32 %38 to i64
  %40 = getelementptr inbounds i8, ptr %37, i64 %39
  %41 = load i8, ptr %40, align 1, !tbaa !24
  %42 = icmp ne i8 %41, 0
  br i1 %42, label %43, label %70

43:                                               ; preds = %36
  call void @llvm.lifetime.start.p0(i64 4, ptr %16) #15
  store i32 0, ptr %16, align 4, !tbaa !3
  br label %44

44:                                               ; preds = %66, %43
  %45 = load i32, ptr %16, align 4, !tbaa !3
  %46 = load i32, ptr %12, align 4, !tbaa !3
  %47 = icmp slt i32 %45, %46
  br i1 %47, label %49, label %48

48:                                               ; preds = %44
  store i32 5, ptr %15, align 4
  call void @llvm.lifetime.end.p0(i64 4, ptr %16) #15
  br label %69

49:                                               ; preds = %44
  %50 = load ptr, ptr %7, align 8, !tbaa !13
  %51 = load i32, ptr %16, align 4, !tbaa !3
  %52 = sext i32 %51 to i64
  %53 = getelementptr inbounds i16, ptr %50, i64 %52
  %54 = load i16, ptr %53, align 2, !tbaa !101
  %55 = zext i16 %54 to i32
  %56 = load ptr, ptr %8, align 8, !tbaa !13
  %57 = load i32, ptr %16, align 4, !tbaa !3
  %58 = sext i32 %57 to i64
  %59 = getelementptr inbounds i16, ptr %56, i64 %58
  %60 = load i16, ptr %59, align 2, !tbaa !101
  %61 = zext i16 %60 to i32
  %62 = sub nsw i32 %55, %61
  %63 = call i32 @llvm.abs.i32(i32 %62, i1 true)
  %64 = load i32, ptr %13, align 4, !tbaa !3
  %65 = add nsw i32 %64, %63
  store i32 %65, ptr %13, align 4, !tbaa !3
  br label %66

66:                                               ; preds = %49
  %67 = load i32, ptr %16, align 4, !tbaa !3
  %68 = add nsw i32 %67, 1
  store i32 %68, ptr %16, align 4, !tbaa !3
  br label %44, !llvm.loop !236

69:                                               ; preds = %48
  br label %70

70:                                               ; preds = %69, %36
  br label %71

71:                                               ; preds = %70
  %72 = load i32, ptr %14, align 4, !tbaa !3
  %73 = add nsw i32 %72, 1
  store i32 %73, ptr %14, align 4, !tbaa !3
  %74 = load i32, ptr %12, align 4, !tbaa !3
  %75 = load ptr, ptr %7, align 8, !tbaa !13
  %76 = sext i32 %74 to i64
  %77 = getelementptr inbounds i16, ptr %75, i64 %76
  store ptr %77, ptr %7, align 8, !tbaa !13
  %78 = load i32, ptr %12, align 4, !tbaa !3
  %79 = load ptr, ptr %8, align 8, !tbaa !13
  %80 = sext i32 %78 to i64
  %81 = getelementptr inbounds i16, ptr %79, i64 %80
  store ptr %81, ptr %8, align 8, !tbaa !13
  br label %31, !llvm.loop !237

82:                                               ; preds = %35
  br label %83

83:                                               ; preds = %82, %21
  %84 = load i32, ptr %13, align 4, !tbaa !3
  %85 = load ptr, ptr %10, align 8, !tbaa !11
  store i32 %84, ptr %85, align 4, !tbaa !3
  store i32 1, ptr %15, align 4
  call void @llvm.lifetime.end.p0(i64 4, ptr %13) #15
  ret i32 0
}

; Function Attrs: mustprogress uwtable
define internal noundef i32 @_ZN2cvL14normDiffL1_16uEPKtS1_PKhPiii(ptr noundef %0, ptr noundef %1, ptr noundef %2, ptr noundef %3, i32 noundef %4, i32 noundef %5) #0 {
  %7 = alloca ptr, align 8
  %8 = alloca ptr, align 8
  %9 = alloca ptr, align 8
  %10 = alloca ptr, align 8
  %11 = alloca i32, align 4
  %12 = alloca i32, align 4
  store ptr %0, ptr %7, align 8, !tbaa !13
  store ptr %1, ptr %8, align 8, !tbaa !13
  store ptr %2, ptr %9, align 8, !tbaa !9
  store ptr %3, ptr %10, align 8, !tbaa !11
  store i32 %4, ptr %11, align 4, !tbaa !3
  store i32 %5, ptr %12, align 4, !tbaa !3
  %13 = load ptr, ptr %7, align 8, !tbaa !13
  %14 = load ptr, ptr %8, align 8, !tbaa !13
  %15 = load ptr, ptr %9, align 8, !tbaa !9
  %16 = load ptr, ptr %10, align 8, !tbaa !11
  %17 = load i32, ptr %11, align 4, !tbaa !3
  %18 = load i32, ptr %12, align 4, !tbaa !3
  %19 = call noundef i32 @_ZN2cv11normDiffL1_ItiEEiPKT_S3_PKhPT0_ii(ptr noundef %13, ptr noundef %14, ptr noundef %15, ptr noundef %16, i32 noundef %17, i32 noundef %18)
  ret i32 %19
}